target datalayout = "e-m:e-p270:32:32-p271:32:32-p272:64:64-i64:64-i128:128-f80:128-n8:16:32:64-S128"
target triple = "x86_64-pc-linux-gnu"

%struct.expert_field = type { i32, i32 }

@hf_openflow_v6_tablemod_prop_type = internal global i32 0, align 4
@hf_openflow_v6_tablemod_prop_length = internal global i32 0, align 4
@hf_openflow_v6_tablemod_prop_eviction_flags = internal global i32 0, align 4
@hf_openflow_v6_tablemod_prop_eviction_flags_other = internal global i32 0, align 4
@hf_openflow_v6_tablemod_prop_eviction_flags_importance = internal global i32 0, align 4
@hf_openflow_v6_tablemod_prop_eviction_flags_lifetime = internal global i32 0, align 4
@hf_openflow_v6_tablemod_prop_vacancy_vacancy_down = internal global i32 0, align 4
@hf_openflow_v6_tablemod_prop_vacancy_vacancy_up = internal global i32 0, align 4
@hf_openflow_v6_tablemod_prop_vacancy_vacancy = internal global i32 0, align 4
@hf_openflow_v6_tablemod_prop_vacancy_pad = internal global i32 0, align 4
@hf_openflow_v6_tablemod_prop_experimenter_experimenter = internal global i32 0, align 4
@hf_openflow_v6_tablemod_prop_experimenter_exp_type = internal global i32 0, align 4
@ett_openflow_v6_tablemod_prop = internal global i32 0, align 4
@ett_openflow_v6_tablemod_prop_eviction_flags = internal global i32 0, align 4
@ei_openflow_v6_tablemod_prop_undecoded = internal global %struct.expert_field zeroinitializer, align 4
@ei_openflow_v6_length_too_short = internal global %struct.expert_field zeroinitializer, align 4
@.str.1605 = private unnamed_addr constant [18 x i8] c"Tablemod property\00", align 1
@.str.1606 = private unnamed_addr constant [34 x i8] c"Experimenter table mod. property.\00", align 1
@.str.1607 = private unnamed_addr constant [29 x i8] c"Unknown table mod. property.\00", align 1

; Function Attrs: null_pointer_is_valid sspstrong uwtable
define internal i32 @dissect_openflow_tablemod_prop_v6(ptr noundef %0, ptr noundef %1, ptr noundef %2, i32 noundef %3, i16 noundef zeroext %4) #0 {
  %6 = alloca ptr, align 8
  %7 = alloca ptr, align 8
  %8 = alloca ptr, align 8
  %9 = alloca i32, align 4
  %10 = alloca i16, align 2
  %11 = alloca ptr, align 8
  %12 = alloca ptr, align 8
  %13 = alloca ptr, align 8
  %14 = alloca ptr, align 8
  %15 = alloca i32, align 4
  %16 = alloca i32, align 4
  store ptr %0, ptr %6, align 8
  store ptr %1, ptr %7, align 8
  store ptr %2, ptr %8, align 8
  store i32 %3, ptr %9, align 4
  store i16 %4, ptr %10, align 2
  call void @llvm.lifetime.start.p0(i64 8, ptr %11) #5
  call void @llvm.lifetime.start.p0(i64 8, ptr %12) #5
  call void @llvm.lifetime.start.p0(i64 8, ptr %13) #5
  call void @llvm.lifetime.start.p0(i64 8, ptr %14) #5
  call void @llvm.lifetime.start.p0(i64 4, ptr %15) #5
  call void @llvm.lifetime.start.p0(i64 4, ptr %16) #5
  %17 = load ptr, ptr %6, align 8
  %18 = load i32, ptr %9, align 4
  %19 = add i32 %18, 2
  %20 = call zeroext i16 @tvb_get_ntohs(ptr noundef %17, i32 noundef %19)
  %21 = zext i16 %20 to i32
  store i32 %21, ptr %16, align 4
  %22 = load ptr, ptr %8, align 8
  %23 = load ptr, ptr %6, align 8
  %24 = load i32, ptr %9, align 4
  %25 = load i32, ptr @ett_openflow_v6_tablemod_prop, align 4
  %26 = call ptr @proto_tree_add_subtree(ptr noundef %22, ptr noundef %23, i32 noundef %24, i32 noundef -1, i32 noundef %25, ptr noundef %11, ptr noundef @.str.1605)
  store ptr %26, ptr %13, align 8
  %27 = load ptr, ptr %13, align 8
  %28 = load i32, ptr @hf_openflow_v6_tablemod_prop_type, align 4
  %29 = load ptr, ptr %6, align 8
  %30 = load i32, ptr %9, align 4
  %31 = call ptr @proto_tree_add_item_ret_uint(ptr noundef %27, i32 noundef %28, ptr noundef %29, i32 noundef %30, i32 noundef 2, i32 noundef 0, ptr noundef %15)
  %32 = load i32, ptr %9, align 4
  %33 = add i32 %32, 2
  store i32 %33, ptr %9, align 4
  %34 = load ptr, ptr %13, align 8
  %35 = load i32, ptr @hf_openflow_v6_tablemod_prop_length, align 4
  %36 = load ptr, ptr %6, align 8
  %37 = load i32, ptr %9, align 4
  %38 = call ptr @proto_tree_add_item_ret_uint(ptr noundef %34, i32 noundef %35, ptr noundef %36, i32 noundef %37, i32 noundef 2, i32 noundef 0, ptr noundef %16)
  store ptr %38, ptr %12, align 8
  %39 = load ptr, ptr %11, align 8
  %40 = load i32, ptr %16, align 4
  call void @proto_item_set_len(ptr noundef %39, i32 noundef %40)
  %41 = load i32, ptr %9, align 4
  %42 = add i32 %41, 2
  store i32 %42, ptr %9, align 4
  %43 = load i32, ptr %15, align 4
  switch i32 %43, label %134 [
    i32 2, label %44
    i32 3, label %70
    i32 65535, label %99
  ]

44:                                               ; preds = %5
  %45 = load ptr, ptr %13, align 8
  %46 = load i32, ptr @hf_openflow_v6_tablemod_prop_eviction_flags, align 4
  %47 = load ptr, ptr %6, align 8
  %48 = load i32, ptr %9, align 4
  %49 = call ptr @proto_tree_add_item(ptr noundef %45, i32 noundef %46, ptr noundef %47, i32 noundef %48, i32 noundef 4, i32 noundef 0)
  store ptr %49, ptr %11, align 8
  %50 = load ptr, ptr %11, align 8
  %51 = load i32, ptr @ett_openflow_v6_tablemod_prop_eviction_flags, align 4
  %52 = call ptr @proto_item_add_subtree(ptr noundef %50, i32 noundef %51)
  store ptr %52, ptr %14, align 8
  %53 = load ptr, ptr %14, align 8
  %54 = load i32, ptr @hf_openflow_v6_tablemod_prop_eviction_flags_other, align 4
  %55 = load ptr, ptr %6, align 8
  %56 = load i32, ptr %9, align 4
  %57 = call ptr @proto_tree_add_item(ptr noundef %53, i32 noundef %54, ptr noundef %55, i32 noundef %56, i32 noundef 4, i32 noundef 0)
  %58 = load ptr, ptr %14, align 8
  %59 = load i32, ptr @hf_openflow_v6_tablemod_prop_eviction_flags_importance, align 4
  %60 = load ptr, ptr %6, align 8
  %61 = load i32, ptr %9, align 4
  %62 = call ptr @proto_tree_add_item(ptr noundef %58, i32 noundef %59, ptr noundef %60, i32 noundef %61, i32 noundef 4, i32 noundef 0)
  %63 = load ptr, ptr %14, align 8
  %64 = load i32, ptr @hf_openflow_v6_tablemod_prop_eviction_flags_lifetime, align 4
  %65 = load ptr, ptr %6, align 8
  %66 = load i32, ptr %9, align 4
  %67 = call ptr @proto_tree_add_item(ptr noundef %63, i32 noundef %64, ptr noundef %65, i32 noundef %66, i32 noundef 4, i32 noundef 0)
  %68 = load i32, ptr %9, align 4
  %69 = add i32 %68, 4
  store i32 %69, ptr %9, align 4
  br label %155

70:                                               ; preds = %5
  %71 = load ptr, ptr %8, align 8
  %72 = load i32, ptr @hf_openflow_v6_tablemod_prop_vacancy_vacancy_down, align 4
  %73 = load ptr, ptr %6, align 8
  %74 = load i32, ptr %9, align 4
  %75 = call ptr @proto_tree_add_item(ptr noundef %71, i32 noundef %72, ptr noundef %73, i32 noundef %74, i32 noundef 1, i32 noundef 0)
  %76 = load i32, ptr %9, align 4
  %77 = add i32 %76, 1
  store i32 %77, ptr %9, align 4
  %78 = load ptr, ptr %8, align 8
  %79 = load i32, ptr @hf_openflow_v6_tablemod_prop_vacancy_vacancy_up, align 4
  %80 = load ptr, ptr %6, align 8
  %81 = load i32, ptr %9, align 4
  %82 = call ptr @proto_tree_add_item(ptr noundef %78, i32 noundef %79, ptr noundef %80, i32 noundef %81, i32 noundef 1, i32 noundef 0)
  %83 = load i32, ptr %9, align 4
  %84 = add i32 %83, 1
  store i32 %84, ptr %9, align 4
  %85 = load ptr, ptr %8, align 8
  %86 = load i32, ptr @hf_openflow_v6_tablemod_prop_vacancy_vacancy, align 4
  %87 = load ptr, ptr %6, align 8
  %88 = load i32, ptr %9, align 4
  %89 = call ptr @proto_tree_add_item(ptr noundef %85, i32 noundef %86, ptr noundef %87, i32 noundef %88, i32 noundef 1, i32 noundef 0)
  %90 = load i32, ptr %9, align 4
  %91 = add i32 %90, 1
  store i32 %91, ptr %9, align 4
  %92 = load ptr, ptr %8, align 8
  %93 = load i32, ptr @hf_openflow_v6_tablemod_prop_vacancy_pad, align 4
  %94 = load ptr, ptr %6, align 8
  %95 = load i32, ptr %9, align 4
  %96 = call ptr @proto_tree_add_item(ptr noundef %92, i32 noundef %93, ptr noundef %94, i32 noundef %95, i32 noundef 1, i32 noundef 0)
  %97 = load i32, ptr %9, align 4
  %98 = add i32 %97, 1
  store i32 %98, ptr %9, align 4
  br label %155

99:                                               ; preds = %5
  %100 = load i32, ptr %16, align 4
  %101 = icmp ule i32 %100, 12
  br i1 %101, label %102, label %108

102:                                              ; preds = %99
  %103 = load ptr, ptr %7, align 8
  %104 = load ptr, ptr %12, align 8
  %105 = call ptr @expert_add_info(ptr noundef %103, ptr noundef %104, ptr noundef @ei_openflow_v6_length_too_short)
  %106 = load i16, ptr %10, align 2
  %107 = zext i16 %106 to i32
  store i32 %107, ptr %9, align 4
  br label %155

108:                                              ; preds = %99
  %109 = load ptr, ptr %8, align 8
  %110 = load i32, ptr @hf_openflow_v6_tablemod_prop_experimenter_experimenter, align 4
  %111 = load ptr, ptr %6, align 8
  %112 = load i32, ptr %9, align 4
  %113 = call ptr @proto_tree_add_item(ptr noundef %109, i32 noundef %110, ptr noundef %111, i32 noundef %112, i32 noundef 4, i32 noundef 0)
  %114 = load i32, ptr %9, align 4
  %115 = add i32 %114, 4
  store i32 %115, ptr %9, align 4
  %116 = load ptr, ptr %8, align 8
  %117 = load i32, ptr @hf_openflow_v6_tablemod_prop_experimenter_exp_type, align 4
  %118 = load ptr, ptr %6, align 8
  %119 = load i32, ptr %9, align 4
  %120 = call ptr @proto_tree_add_item(ptr noundef %116, i32 noundef %117, ptr noundef %118, i32 noundef %119, i32 noundef 4, i32 noundef 0)
  %121 = load i32, ptr %9, align 4
  %122 = add i32 %121, 4
  store i32 %122, ptr %9, align 4
  %123 = load ptr, ptr %8, align 8
  %124 = load ptr, ptr %7, align 8
  %125 = load ptr, ptr %6, align 8
  %126 = load i32, ptr %9, align 4
  %127 = load i32, ptr %16, align 4
  %128 = sub i32 %127, 12
  %129 = call ptr (ptr, ptr, ptr, ptr, i32, i32, ptr, ...) @proto_tree_add_expert_format(ptr noundef %123, ptr noundef %124, ptr noundef @ei_openflow_v6_tablemod_prop_undecoded, ptr noundef %125, i32 noundef %126, i32 noundef %128, ptr noundef @.str.1606)
  %130 = load i32, ptr %16, align 4
  %131 = sub i32 %130, 12
  %132 = load i32, ptr %9, align 4
  %133 = add i32 %132, %131
  store i32 %133, ptr %9, align 4
  br label %155

134:                                              ; preds = %5
  %135 = load i32, ptr %16, align 4
  %136 = icmp ule i32 %135, 4
  br i1 %136, label %137, label %143

137:                                              ; preds = %134
  %138 = load ptr, ptr %7, align 8
  %139 = load ptr, ptr %12, align 8
  %140 = call ptr @expert_add_info(ptr noundef %138, ptr noundef %139, ptr noundef @ei_openflow_v6_length_too_short)
  %141 = load i16, ptr %10, align 2
  %142 = zext i16 %141 to i32
  store i32 %142, ptr %9, align 4
  br label %155

143:                                              ; preds = %134
  %144 = load ptr, ptr %8, align 8
  %145 = load ptr, ptr %7, align 8
  %146 = load ptr, ptr %6, align 8
  %147 = load i32, ptr %9, align 4
  %148 = load i32, ptr %16, align 4
  %149 = sub i32 %148, 4
  %150 = call ptr (ptr, ptr, ptr, ptr, i32, i32, ptr, ...) @proto_tree_add_expert_format(ptr noundef %144, ptr noundef %145, ptr noundef @ei_openflow_v6_tablemod_prop_undecoded, ptr noundef %146, i32 noundef %147, i32 noundef %149, ptr noundef @.str.1607)
  %151 = load i32, ptr %16, align 4
  %152 = sub i32 %151, 4
  %153 = load i32, ptr %9, align 4
  %154 = add i32 %153, %152
  store i32 %154, ptr %9, align 4
  br label %155

155:                                              ; preds = %143, %137, %108, %102, %70, %44
  %156 = load i32, ptr %9, align 4
  call void @llvm.lifetime.end.p0(i64 4, ptr %16) #5
  call void @llvm.lifetime.end.p0(i64 4, ptr %15) #5
  call void @llvm.lifetime.end.p0(i64 8, ptr %14) #5
  call void @llvm.lifetime.end.p0(i64 8, ptr %13) #5
  call void @llvm.lifetime.end.p0(i64 8, ptr %12) #5
  call void @llvm.lifetime.end.p0(i64 8, ptr %11) #5
  ret i32 %156
}