; Function Attrs: null_pointer_is_valid sspstrong uwtable
define internal fastcc i32 @dissect_openflow_tablemod_prop_v6(ptr noundef %0, ptr noundef %1, ptr noundef %2, i32 noundef %3, i16 noundef zeroext %4) unnamed_addr #0 {
  %6 = alloca ptr, align 8
  %7 = alloca i32, align 4
  %8 = alloca i32, align 4
  call void @llvm.lifetime.start.p0(i64 8, ptr nonnull %6) #4
  call void @llvm.lifetime.start.p0(i64 4, ptr nonnull %7) #4
  call void @llvm.lifetime.start.p0(i64 4, ptr nonnull %8) #4
  %9 = add i32 %3, 2
  %10 = tail call zeroext i16 @tvb_get_ntohs(ptr noundef %0, i32 noundef %9)
  %11 = zext i16 %10 to i32
  store i32 %11, ptr %8, align 4
  %12 = load i32, ptr @ett_openflow_v6_tablemod_prop, align 4
  %13 = call ptr @proto_tree_add_subtree(ptr noundef %2, ptr noundef %0, i32 noundef %3, i32 noundef -1, i32 noundef %12, ptr noundef nonnull %6, ptr noundef nonnull @.str.1605)
  %14 = load i32, ptr @hf_openflow_v6_tablemod_prop_type, align 4
  %15 = call ptr @proto_tree_add_item_ret_uint(ptr noundef %13, i32 noundef %14, ptr noundef %0, i32 noundef %3, i32 noundef 2, i32 noundef 0, ptr noundef nonnull %7)
  %16 = load i32, ptr @hf_openflow_v6_tablemod_prop_length, align 4
  %17 = call ptr @proto_tree_add_item_ret_uint(ptr noundef %13, i32 noundef %16, ptr noundef %0, i32 noundef %9, i32 noundef 2, i32 noundef 0, ptr noundef nonnull %8)
  %18 = load ptr, ptr %6, align 8
  %19 = load i32, ptr %8, align 4
  call void @proto_item_set_len(ptr noundef %18, i32 noundef %19)
  %20 = add i32 %3, 4
  %21 = load i32, ptr %7, align 4
  switch i32 %21, label %65 [
    i32 2, label %22
    i32 3, label %34
    i32 65535, label %47
  ]

22:                                               ; preds = %5
  %23 = load i32, ptr @hf_openflow_v6_tablemod_prop_eviction_flags, align 4
  %24 = call ptr @proto_tree_add_item(ptr noundef %13, i32 noundef %23, ptr noundef %0, i32 noundef %20, i32 noundef 4, i32 noundef 0)
  store ptr %24, ptr %6, align 8
  %25 = load i32, ptr @ett_openflow_v6_tablemod_prop_eviction_flags, align 4
  %26 = call ptr @proto_item_add_subtree(ptr noundef %24, i32 noundef %25)
  %27 = load i32, ptr @hf_openflow_v6_tablemod_prop_eviction_flags_other, align 4
  %28 = call ptr @proto_tree_add_item(ptr noundef %26, i32 noundef %27, ptr noundef %0, i32 noundef %20, i32 noundef 4, i32 noundef 0)
  %29 = load i32, ptr @hf_openflow_v6_tablemod_prop_eviction_flags_importance, align 4
  %30 = call ptr @proto_tree_add_item(ptr noundef %26, i32 noundef %29, ptr noundef %0, i32 noundef %20, i32 noundef 4, i32 noundef 0)
  %31 = load i32, ptr @hf_openflow_v6_tablemod_prop_eviction_flags_lifetime, align 4
  %32 = call ptr @proto_tree_add_item(ptr noundef %26, i32 noundef %31, ptr noundef %0, i32 noundef %20, i32 noundef 4, i32 noundef 0)
  %33 = add i32 %3, 8
  br label %76

34:                                               ; preds = %5
  %35 = load i32, ptr @hf_openflow_v6_tablemod_prop_vacancy_vacancy_down, align 4
  %36 = call ptr @proto_tree_add_item(ptr noundef %2, i32 noundef %35, ptr noundef %0, i32 noundef %20, i32 noundef 1, i32 noundef 0)
  %37 = add i32 %3, 5
  %38 = load i32, ptr @hf_openflow_v6_tablemod_prop_vacancy_vacancy_up, align 4
  %39 = call ptr @proto_tree_add_item(ptr noundef %2, i32 noundef %38, ptr noundef %0, i32 noundef %37, i32 noundef 1, i32 noundef 0)
  %40 = add i32 %3, 6
  %41 = load i32, ptr @hf_openflow_v6_tablemod_prop_vacancy_vacancy, align 4
  %42 = call ptr @proto_tree_add_item(ptr noundef %2, i32 noundef %41, ptr noundef %0, i32 noundef %40, i32 noundef 1, i32 noundef 0)
  %43 = add i32 %3, 7
  %44 = load i32, ptr @hf_openflow_v6_tablemod_prop_vacancy_pad, align 4
  %45 = call ptr @proto_tree_add_item(ptr noundef %2, i32 noundef %44, ptr noundef %0, i32 noundef %43, i32 noundef 1, i32 noundef 0)
  %46 = add i32 %3, 8
  br label %76

47:                                               ; preds = %5
  %48 = load i32, ptr %8, align 4
  %49 = icmp ult i32 %48, 13
  br i1 %49, label %50, label %53

50:                                               ; preds = %47
  %51 = call ptr @expert_add_info(ptr noundef %1, ptr noundef %17, ptr noundef nonnull @ei_openflow_v6_length_too_short)
  %52 = zext i16 %4 to i32
  br label %76

53:                                               ; preds = %47
  %54 = load i32, ptr @hf_openflow_v6_tablemod_prop_experimenter_experimenter, align 4
  %55 = call ptr @proto_tree_add_item(ptr noundef %2, i32 noundef %54, ptr noundef %0, i32 noundef %20, i32 noundef 4, i32 noundef 0)
  %56 = add i32 %3, 8
  %57 = load i32, ptr @hf_openflow_v6_tablemod_prop_experimenter_exp_type, align 4
  %58 = call ptr @proto_tree_add_item(ptr noundef %2, i32 noundef %57, ptr noundef %0, i32 noundef %56, i32 noundef 4, i32 noundef 0)
  %59 = add i32 %3, 12
  %60 = load i32, ptr %8, align 4
  %61 = add i32 %60, -12
  %62 = call ptr (ptr, ptr, ptr, ptr, i32, i32, ptr, ...) @proto_tree_add_expert_format(ptr noundef %2, ptr noundef %1, ptr noundef nonnull @ei_openflow_v6_tablemod_prop_undecoded, ptr noundef %0, i32 noundef %59, i32 noundef %61, ptr noundef nonnull @.str.1606)
  %63 = load i32, ptr %8, align 4
  %64 = add i32 %63, %3
  br label %76

65:                                               ; preds = %5
  %66 = load i32, ptr %8, align 4
  %67 = icmp ult i32 %66, 5
  br i1 %67, label %68, label %71

68:                                               ; preds = %65
  %69 = call ptr @expert_add_info(ptr noundef %1, ptr noundef %17, ptr noundef nonnull @ei_openflow_v6_length_too_short)
  %70 = zext i16 %4 to i32
  br label %76

71:                                               ; preds = %65
  %72 = add i32 %66, -4
  %73 = call ptr (ptr, ptr, ptr, ptr, i32, i32, ptr, ...) @proto_tree_add_expert_format(ptr noundef %2, ptr noundef %1, ptr noundef nonnull @ei_openflow_v6_tablemod_prop_undecoded, ptr noundef %0, i32 noundef %20, i32 noundef %72, ptr noundef nonnull @.str.1607)
  %74 = load i32, ptr %8, align 4
  %75 = add i32 %74, %3
  br label %76

76:                                               ; preds = %71, %68, %53, %50, %34, %22
  %.0 = phi i32 [ %70, %68 ], [ %75, %71 ], [ %52, %50 ], [ %64, %53 ], [ %46, %34 ], [ %33, %22 ]
  call void @llvm.lifetime.end.p0(i64 4, ptr nonnull %8) #4
  call void @llvm.lifetime.end.p0(i64 4, ptr nonnull %7) #4
  call void @llvm.lifetime.end.p0(i64 8, ptr nonnull %6) #4
  ret i32 %.0
}